ccopy_reg
_reconstructor
p1
(cargparse
Namespace
p2
c__builtin__
object
p3
NtRp4
(dp5
S'learning_rate'
p6
F0.0050000000000000001
sS'batch_size'
p7
I500
sS'checkpoint_step'
p8
I1
sS'learning_rate_d'
p9
F0.001
sS'beta1'
p10
F0.65000000000000002
sS'display_step'
p11
I1
sS'training_epochs'
p12
I1990
sS'keep_prob'
p13
F1
sS'learning_rate_vae'
p14
F0.001
sb.